; Function Attrs: mustprogress nofree norecurse nosync nounwind memory(argmem: readwrite) uwtable
define internal fastcc noundef i32 @_ZN6dmg_fpL6quoremEPNS_6BigintES1_(ptr noundef captures(none) %0, ptr noundef readonly captures(address) %1) unnamed_addr #10 {
  %3 = getelementptr inbounds nuw i8, ptr %1, i64 20
  %4 = load i32, ptr %3, align 4, !tbaa !37
  %5 = getelementptr inbounds nuw i8, ptr %0, i64 20
  %6 = load i32, ptr %5, align 4, !tbaa !37
  %7 = icmp slt i32 %6, %4
  br i1 %7, label %_ZN6dmg_fpL3cmpEPNS_6BigintES1_.exit.thread89, label %8

8:                                                ; preds = %2
  %9 = getelementptr inbounds nuw i8, ptr %1, i64 24
  %10 = add nsw i32 %4, -1
  %11 = sext i32 %10 to i64
  %12 = getelementptr inbounds i32, ptr %9, i64 %11
  %.ptr79.ptr = getelementptr inbounds nuw i8, ptr %0, i64 24
  %.idx = shl nsw i64 %11, 2
  %13 = getelementptr i8, ptr %0, i64 %.idx
  %.ptr80 = getelementptr i8, ptr %13, i64 24
  %14 = load i32, ptr %.ptr80, align 4, !tbaa !20
  %15 = load i32, ptr %12, align 4, !tbaa !20
  %16 = add i32 %15, 1
  %17 = udiv i32 %14, %16
  %.not = icmp ugt i32 %16, %14
  br i1 %.not, label %42, label %.preheader96

.preheader96:                                     ; preds = %8
  %18 = zext i32 %17 to i64
  br label %19

19:                                               ; preds = %.preheader96, %19
  %.069 = phi ptr [ %34, %19 ], [ %.ptr79.ptr, %.preheader96 ]
  %.064 = phi ptr [ %20, %19 ], [ %9, %.preheader96 ]
  %.061 = phi i64 [ %32, %19 ], [ 0, %.preheader96 ]
  %.0 = phi i64 [ %25, %19 ], [ 0, %.preheader96 ]
  %20 = getelementptr inbounds nuw i8, ptr %.064, i64 4
  %21 = load i32, ptr %.064, align 4, !tbaa !20
  %22 = zext i32 %21 to i64
  %23 = mul nuw i64 %22, %18
  %24 = add nuw i64 %23, %.0
  %25 = lshr i64 %24, 32
  %26 = load i32, ptr %.069, align 4, !tbaa !20
  %27 = zext i32 %26 to i64
  %28 = and i64 %24, 4294967295
  %29 = add nuw nsw i64 %.061, %28
  %30 = sub nsw i64 %27, %29
  %31 = lshr i64 %30, 32
  %32 = and i64 %31, 1
  %33 = trunc i64 %30 to i32
  %34 = getelementptr inbounds nuw i8, ptr %.069, i64 4
  store i32 %33, ptr %.069, align 4, !tbaa !20
  %.not77 = icmp ugt ptr %20, %12
  br i1 %.not77, label %35, label %19, !llvm.loop !72

35:                                               ; preds = %19
  %36 = load i32, ptr %.ptr80, align 4, !tbaa !20
  %.not78 = icmp eq i32 %36, 0
  br i1 %.not78, label %.preheader95, label %._crit_edge

._crit_edge:                                      ; preds = %35
  %.pre = load i32, ptr %5, align 4, !tbaa !37
  br label %42

.preheader95:                                     ; preds = %35
  %37 = icmp sgt i32 %4, 2
  br i1 %37, label %.lr.ph.preheader, label %.critedge

.lr.ph.preheader:                                 ; preds = %.preheader95
  %.067.add100 = add nsw i64 %.idx, 20
  br label %.lr.ph

.lr.ph:                                           ; preds = %.lr.ph.preheader, %39
  %.067.add102 = phi i64 [ %.067.add, %39 ], [ %.067.add100, %.lr.ph.preheader ]
  %.172101 = phi i32 [ %40, %39 ], [ %10, %.lr.ph.preheader ]
  %.ptr = getelementptr inbounds i8, ptr %0, i64 %.067.add102
  %38 = load i32, ptr %.ptr, align 4, !tbaa !20
  %.not81 = icmp eq i32 %38, 0
  br i1 %.not81, label %39, label %.critedge

39:                                               ; preds = %.lr.ph
  %40 = add nsw i32 %.172101, -1
  %.067.add = add nsw i64 %.067.add102, -4
  %41 = icmp sgt i64 %.067.add102, 28
  br i1 %41, label %.lr.ph, label %.critedge, !llvm.loop !73

.critedge:                                        ; preds = %.lr.ph, %39, %.preheader95
  %.172.lcssa = phi i32 [ %10, %.preheader95 ], [ %40, %39 ], [ %.172101, %.lr.ph ]
  store i32 %.172.lcssa, ptr %5, align 4, !tbaa !37
  br label %42

42:                                               ; preds = %._crit_edge, %.critedge, %8
  %43 = phi i32 [ %.pre, %._crit_edge ], [ %.172.lcssa, %.critedge ], [ %6, %8 ]
  %.071 = phi i32 [ %10, %._crit_edge ], [ %.172.lcssa, %.critedge ], [ %10, %8 ]
  %44 = load i32, ptr %3, align 4, !tbaa !37
  %.not.i = icmp eq i32 %43, %44
  br i1 %.not.i, label %45, label %_ZN6dmg_fpL3cmpEPNS_6BigintES1_.exit

45:                                               ; preds = %42
  %46 = sext i32 %43 to i64
  %.idx.i = shl nsw i64 %46, 2
  %.add.i = add nsw i64 %.idx.i, 24
  %47 = getelementptr inbounds i32, ptr %9, i64 %46
  br label %48

48:                                               ; preds = %54, %45
  %.018.i = phi ptr [ %47, %45 ], [ %50, %54 ]
  %.017.idx.i = phi i64 [ %.add.i, %45 ], [ %.017.add.i, %54 ]
  %.017.add.i = add nsw i64 %.017.idx.i, -4
  %.ptr.i = getelementptr inbounds i8, ptr %0, i64 %.017.add.i
  %49 = load i32, ptr %.ptr.i, align 4, !tbaa !20
  %50 = getelementptr inbounds i8, ptr %.018.i, i64 -4
  %51 = load i32, ptr %50, align 4, !tbaa !20
  %.not23.i = icmp eq i32 %49, %51
  br i1 %.not23.i, label %54, label %52

52:                                               ; preds = %48
  %53 = icmp ult i32 %49, %51
  br i1 %53, label %_ZN6dmg_fpL3cmpEPNS_6BigintES1_.exit.thread89, label %_ZN6dmg_fpL3cmpEPNS_6BigintES1_.exit.thread.preheader

54:                                               ; preds = %48
  %.not24.i = icmp sgt i64 %.017.idx.i, 28
  br i1 %.not24.i, label %48, label %_ZN6dmg_fpL3cmpEPNS_6BigintES1_.exit.thread.preheader, !llvm.loop !40

_ZN6dmg_fpL3cmpEPNS_6BigintES1_.exit:             ; preds = %42
  %.not91 = icmp slt i32 %43, %44
  br i1 %.not91, label %_ZN6dmg_fpL3cmpEPNS_6BigintES1_.exit.thread89, label %_ZN6dmg_fpL3cmpEPNS_6BigintES1_.exit.thread.preheader

_ZN6dmg_fpL3cmpEPNS_6BigintES1_.exit.thread.preheader: ; preds = %54, %52, %_ZN6dmg_fpL3cmpEPNS_6BigintES1_.exit
  br label %_ZN6dmg_fpL3cmpEPNS_6BigintES1_.exit.thread

_ZN6dmg_fpL3cmpEPNS_6BigintES1_.exit.thread:      ; preds = %_ZN6dmg_fpL3cmpEPNS_6BigintES1_.exit.thread.preheader, %_ZN6dmg_fpL3cmpEPNS_6BigintES1_.exit.thread
  %.170 = phi ptr [ %65, %_ZN6dmg_fpL3cmpEPNS_6BigintES1_.exit.thread ], [ %.ptr79.ptr, %_ZN6dmg_fpL3cmpEPNS_6BigintES1_.exit.thread.preheader ]
  %.165 = phi ptr [ %55, %_ZN6dmg_fpL3cmpEPNS_6BigintES1_.exit.thread ], [ %9, %_ZN6dmg_fpL3cmpEPNS_6BigintES1_.exit.thread.preheader ]
  %.162 = phi i64 [ %63, %_ZN6dmg_fpL3cmpEPNS_6BigintES1_.exit.thread ], [ 0, %_ZN6dmg_fpL3cmpEPNS_6BigintES1_.exit.thread.preheader ]
  %55 = getelementptr inbounds nuw i8, ptr %.165, i64 4
  %56 = load i32, ptr %.165, align 4, !tbaa !20
  %57 = zext i32 %56 to i64
  %58 = load i32, ptr %.170, align 4, !tbaa !20
  %59 = zext i32 %58 to i64
  %60 = add nuw nsw i64 %.162, %57
  %61 = sub nsw i64 %59, %60
  %62 = lshr i64 %61, 32
  %63 = and i64 %62, 1
  %64 = trunc i64 %61 to i32
  %65 = getelementptr inbounds nuw i8, ptr %.170, i64 4
  store i32 %64, ptr %.170, align 4, !tbaa !20
  %.not82 = icmp ugt ptr %55, %12
  br i1 %.not82, label %66, label %_ZN6dmg_fpL3cmpEPNS_6BigintES1_.exit.thread, !llvm.loop !74

66:                                               ; preds = %_ZN6dmg_fpL3cmpEPNS_6BigintES1_.exit.thread
  %67 = add i32 %17, 1
  %68 = sext i32 %.071 to i64
  %.idx84 = shl nsw i64 %68, 2
  %69 = getelementptr i8, ptr %0, i64 %.idx84
  %.ptr86 = getelementptr i8, ptr %69, i64 24
  %70 = load i32, ptr %.ptr86, align 4, !tbaa !20
  %.not83 = icmp eq i32 %70, 0
  br i1 %.not83, label %.preheader, label %_ZN6dmg_fpL3cmpEPNS_6BigintES1_.exit.thread89

.preheader:                                       ; preds = %66
  %71 = icmp sgt i32 %.071, 1
  br i1 %71, label %.lr.ph108.preheader, label %.critedge2

.lr.ph108.preheader:                              ; preds = %.preheader
  %.168.add105 = add nuw nsw i64 %.idx84, 20
  br label %.lr.ph108

.lr.ph108:                                        ; preds = %.lr.ph108.preheader, %73
  %.168.add107 = phi i64 [ %.168.add, %73 ], [ %.168.add105, %.lr.ph108.preheader ]
  %.2106 = phi i32 [ %74, %73 ], [ %.071, %.lr.ph108.preheader ]
  %.ptr85 = getelementptr inbounds i8, ptr %0, i64 %.168.add107
  %72 = load i32, ptr %.ptr85, align 4, !tbaa !20
  %.not87 = icmp eq i32 %72, 0
  br i1 %.not87, label %73, label %.critedge2

73:                                               ; preds = %.lr.ph108
  %74 = add nsw i32 %.2106, -1
  %.168.add = add nsw i64 %.168.add107, -4
  %75 = icmp sgt i64 %.168.add107, 28
  br i1 %75, label %.lr.ph108, label %.critedge2, !llvm.loop !75

.critedge2:                                       ; preds = %.lr.ph108, %73, %.preheader
  %.2.lcssa = phi i32 [ %.071, %.preheader ], [ %74, %73 ], [ %.2106, %.lr.ph108 ]
  store i32 %.2.lcssa, ptr %5, align 4, !tbaa !37
  br label %_ZN6dmg_fpL3cmpEPNS_6BigintES1_.exit.thread89

_ZN6dmg_fpL3cmpEPNS_6BigintES1_.exit.thread89:    ; preds = %52, %_ZN6dmg_fpL3cmpEPNS_6BigintES1_.exit, %.critedge2, %66, %2
  %.063 = phi i32 [ 0, %2 ], [ %67, %66 ], [ %67, %.critedge2 ], [ %17, %_ZN6dmg_fpL3cmpEPNS_6BigintES1_.exit ], [ %17, %52 ]
  ret i32 %.063
}